target datalayout = "e-m:e-p270:32:32-p271:32:32-p272:64:64-i64:64-i128:128-f80:128-n8:16:32:64-S128"
target triple = "x86_64-pc-linux-gnu"

%struct.nstime_t = type { i64, i32 }
%struct._capture_file = type { ptr, i32, ptr, ptr, i8, i8, i8, i64, i16, i32, i32, i32, ptr, i32, i64, i32, i32, i32, i32, i8, i32, %struct.nstime_t, i32, ptr, ptr, ptr, i8, i8, i32, ptr, i8, i8, i8, i8, i8, i32, i32, i8, ptr, i32, i32, i8, %struct.packet_provider_data, i32, i32, %struct.epan_column_info, ptr, ptr, ptr, %struct.wtap_rec, %struct.Buffer, ptr, i64, i32 }
%struct.packet_provider_data = type { ptr, ptr, ptr, ptr, ptr, ptr }
%struct.epan_column_info = type { ptr, i32, ptr, ptr, ptr, %struct.col_expr_t, i8, ptr }
%struct.col_expr_t = type { ptr, ptr }
%struct.wtap_rec = type { i32, i32, i32, %struct.nstime_t, i32, %struct.nstime_t, i8, %union.anon, ptr, i8, %struct.Buffer, %struct.Buffer }
%union.anon = type { %struct.wtap_packet_header }
%struct.wtap_packet_header = type { i32, i32, i32, i32, %union.wtap_pseudo_header }
%union.wtap_pseudo_header = type { %struct.erf_mc_phdr }
%struct.erf_mc_phdr = type { %struct.erf_phdr, [16 x %struct.erf_ehdr], %union.anon.1 }
%struct.erf_phdr = type { i64, i8, i8, i16, i16, i16 }
%struct.erf_ehdr = type { i64 }
%union.anon.1 = type { i32 }
%struct.Buffer = type { ptr, i64, i64, i64 }
%struct._frame_data = type <{ i32, i32, i32, i32, i32, [4 x i8], i64, ptr, ptr, ptr, i8, i16, [5 x i8], %struct.nstime_t, %struct.nstime_t, i32, i32 }>

@.str.15 = private unnamed_addr constant [22 x i8] c"Nothing to work with.\00", align 1
@.str.16 = private unnamed_addr constant [16 x i8] c"Offset is zero.\00", align 1
@.str.17 = private unnamed_addr constant [17 x i8] c"No frames found.\00", align 1
@stderr = external global ptr, align 8
@.str.20 = private unnamed_addr constant [32 x i8] c"Modify_time_perform: neg = %d?\0A\00", align 1

; Function Attrs: null_pointer_is_valid sspstrong uwtable
define internal void @modify_time_perform(ptr noundef %0, i32 noundef %1, ptr noundef %2, i32 noundef %3) #3 {
  %5 = alloca ptr, align 8
  %6 = alloca i32, align 4
  %7 = alloca ptr, align 8
  %8 = alloca i32, align 4
  store ptr %0, ptr %5, align 8
  store i32 %1, ptr %6, align 4
  store ptr %2, ptr %7, align 8
  store i32 %3, ptr %8, align 4
  %9 = load i32, ptr %8, align 4
  %10 = icmp eq i32 %9, 1
  br i1 %10, label %11, label %20

11:                                               ; preds = %4
  %12 = load ptr, ptr %5, align 8
  %13 = getelementptr inbounds nuw %struct._frame_data, ptr %12, i32 0, i32 13
  %14 = load ptr, ptr %5, align 8
  %15 = getelementptr inbounds nuw %struct._frame_data, ptr %14, i32 0, i32 13
  %16 = load ptr, ptr %5, align 8
  %17 = getelementptr inbounds nuw %struct._frame_data, ptr %16, i32 0, i32 14
  call void @nstime_delta(ptr noundef %13, ptr noundef %15, ptr noundef %17)
  %18 = load ptr, ptr %5, align 8
  %19 = getelementptr inbounds nuw %struct._frame_data, ptr %18, i32 0, i32 14
  call void @nstime_set_zero(ptr noundef %19)
  br label %20

20:                                               ; preds = %11, %4
  %21 = load i32, ptr %6, align 4
  %22 = icmp eq i32 %21, 0
  br i1 %22, label %23, label %34

23:                                               ; preds = %20
  %24 = load ptr, ptr %5, align 8
  %25 = getelementptr inbounds nuw %struct._frame_data, ptr %24, i32 0, i32 13
  %26 = load ptr, ptr %5, align 8
  %27 = getelementptr inbounds nuw %struct._frame_data, ptr %26, i32 0, i32 13
  %28 = load ptr, ptr %7, align 8
  call void @nstime_sum(ptr noundef %25, ptr noundef %27, ptr noundef %28)
  %29 = load ptr, ptr %5, align 8
  %30 = getelementptr inbounds nuw %struct._frame_data, ptr %29, i32 0, i32 14
  %31 = load ptr, ptr %5, align 8
  %32 = getelementptr inbounds nuw %struct._frame_data, ptr %31, i32 0, i32 14
  %33 = load ptr, ptr %7, align 8
  call void @nstime_sum(ptr noundef %30, ptr noundef %32, ptr noundef %33)
  br label %53

34:                                               ; preds = %20
  %35 = load i32, ptr %6, align 4
  %36 = icmp eq i32 %35, 1
  br i1 %36, label %37, label %48

37:                                               ; preds = %34
  %38 = load ptr, ptr %5, align 8
  %39 = getelementptr inbounds nuw %struct._frame_data, ptr %38, i32 0, i32 13
  %40 = load ptr, ptr %5, align 8
  %41 = getelementptr inbounds nuw %struct._frame_data, ptr %40, i32 0, i32 13
  %42 = load ptr, ptr %7, align 8
  call void @nstime_delta(ptr noundef %39, ptr noundef %41, ptr noundef %42)
  %43 = load ptr, ptr %5, align 8
  %44 = getelementptr inbounds nuw %struct._frame_data, ptr %43, i32 0, i32 14
  %45 = load ptr, ptr %5, align 8
  %46 = getelementptr inbounds nuw %struct._frame_data, ptr %45, i32 0, i32 14
  %47 = load ptr, ptr %7, align 8
  call void @nstime_delta(ptr noundef %44, ptr noundef %46, ptr noundef %47)
  br label %52

48:                                               ; preds = %34
  %49 = load ptr, ptr @stderr, align 8
  %50 = load i32, ptr %6, align 4
  %51 = call i32 (ptr, i32, ptr, ...) @__fprintf_chk(ptr noundef %49, i32 noundef 2, ptr noundef @.str.20, i32 noundef %50)
  br label %52

52:                                               ; preds = %48, %37
  br label %53

53:                                               ; preds = %52, %23
  ret void
}

; Function Attrs: null_pointer_is_valid sspstrong uwtable
define hidden ptr @time_shift_all(ptr noundef %0, ptr noundef %1) #3 {
  %3 = alloca ptr, align 8
  %4 = alloca ptr, align 8
  %5 = alloca ptr, align 8
  %6 = alloca %struct.nstime_t, align 8
  %7 = alloca x86_fp80, align 16
  %8 = alloca i32, align 4
  %9 = alloca ptr, align 8
  %10 = alloca i8, align 1
  %11 = alloca i32, align 4
  %12 = alloca i32, align 4
  %13 = alloca x86_fp80, align 16
  %14 = alloca ptr, align 8
  %15 = alloca i32, align 4
  store ptr %0, ptr %4, align 8
  store ptr %1, ptr %5, align 8
  call void @llvm.lifetime.start.p0(i64 16, ptr %6) #8
  call void @llvm.lifetime.start.p0(i64 16, ptr %7) #8
  store x86_fp80 0xK00000000000000000000, ptr %7, align 16
  call void @llvm.lifetime.start.p0(i64 4, ptr %8) #8
  call void @llvm.lifetime.start.p0(i64 8, ptr %9) #8
  call void @llvm.lifetime.start.p0(i64 1, ptr %10) #8
  call void @llvm.lifetime.start.p0(i64 4, ptr %11) #8
  call void @llvm.lifetime.start.p0(i64 4, ptr %12) #8
  call void @llvm.lifetime.start.p0(i64 16, ptr %13) #8
  call void @llvm.lifetime.start.p0(i64 8, ptr %14) #8
  %16 = load ptr, ptr %4, align 8
  %17 = icmp ne ptr %16, null
  br i1 %17, label %18, label %21

18:                                               ; preds = %2
  %19 = load ptr, ptr %5, align 8
  %20 = icmp ne ptr %19, null
  br i1 %20, label %22, label %21

21:                                               ; preds = %18, %2
  store ptr @.str.15, ptr %3, align 8
  store i32 1, ptr %15, align 4
  br label %88

22:                                               ; preds = %18
  %23 = load ptr, ptr %5, align 8
  %24 = call ptr @time_string_parse(ptr noundef %23, ptr noundef null, ptr noundef null, ptr noundef null, ptr noundef %10, ptr noundef %11, ptr noundef %12, ptr noundef %13)
  store ptr %24, ptr %14, align 8
  %25 = icmp ne ptr %24, null
  br i1 %25, label %26, label %28

26:                                               ; preds = %22
  %27 = load ptr, ptr %14, align 8
  store ptr %27, ptr %3, align 8
  store i32 1, ptr %15, align 4
  br label %88

28:                                               ; preds = %22
  %29 = load i32, ptr %11, align 4
  %30 = mul i32 %29, 3600
  %31 = load i32, ptr %12, align 4
  %32 = mul i32 %31, 60
  %33 = add i32 %30, %32
  %34 = sitofp i32 %33 to x86_fp80
  %35 = load x86_fp80, ptr %13, align 16
  %36 = fadd x86_fp80 %34, %35
  store x86_fp80 %36, ptr %7, align 16
  %37 = load x86_fp80, ptr %7, align 16
  %38 = fcmp oeq x86_fp80 %37, 0xK00000000000000000000
  br i1 %38, label %39, label %40

39:                                               ; preds = %28
  store ptr @.str.16, ptr %3, align 8
  store i32 1, ptr %15, align 4
  br label %88

40:                                               ; preds = %28
  call void @nstime_set_zero(ptr noundef %6)
  %41 = load x86_fp80, ptr %7, align 16
  %42 = call x86_fp80 @llvm.floor.f80(x86_fp80 %41)
  %43 = fptosi x86_fp80 %42 to i64
  %44 = getelementptr inbounds nuw %struct.nstime_t, ptr %6, i32 0, i32 0
  store i64 %43, ptr %44, align 8
  %45 = getelementptr inbounds nuw %struct.nstime_t, ptr %6, i32 0, i32 0
  %46 = load i64, ptr %45, align 8
  %47 = sitofp i64 %46 to x86_fp80
  %48 = load x86_fp80, ptr %7, align 16
  %49 = fsub x86_fp80 %48, %47
  store x86_fp80 %49, ptr %7, align 16
  %50 = load x86_fp80, ptr %7, align 16
  %51 = fmul x86_fp80 %50, 0xK401CEE6B280000000000
  %52 = fptosi x86_fp80 %51 to i32
  %53 = getelementptr inbounds nuw %struct.nstime_t, ptr %6, i32 0, i32 1
  store i32 %52, ptr %53, align 8
  %54 = load ptr, ptr %4, align 8
  %55 = getelementptr inbounds nuw %struct._capture_file, ptr %54, i32 0, i32 42
  %56 = getelementptr inbounds nuw %struct.packet_provider_data, ptr %55, i32 0, i32 4
  %57 = load ptr, ptr %56, align 8
  %58 = call ptr @frame_data_sequence_find(ptr noundef %57, i32 noundef 1)
  %59 = icmp ne ptr %58, null
  br i1 %59, label %61, label %60

60:                                               ; preds = %40
  store ptr @.str.17, ptr %3, align 8
  store i32 1, ptr %15, align 4
  br label %88

61:                                               ; preds = %40
  store i32 1, ptr %8, align 4
  br label %62

62:                                               ; preds = %82, %61
  %63 = load i32, ptr %8, align 4
  %64 = load ptr, ptr %4, align 8
  %65 = getelementptr inbounds nuw %struct._capture_file, ptr %64, i32 0, i32 13
  %66 = load i32, ptr %65, align 8
  %67 = icmp ule i32 %63, %66
  br i1 %67, label %68, label %85

68:                                               ; preds = %62
  %69 = load ptr, ptr %4, align 8
  %70 = getelementptr inbounds nuw %struct._capture_file, ptr %69, i32 0, i32 42
  %71 = getelementptr inbounds nuw %struct.packet_provider_data, ptr %70, i32 0, i32 4
  %72 = load ptr, ptr %71, align 8
  %73 = load i32, ptr %8, align 4
  %74 = call ptr @frame_data_sequence_find(ptr noundef %72, i32 noundef %73)
  store ptr %74, ptr %9, align 8
  %75 = icmp eq ptr %74, null
  br i1 %75, label %76, label %77

76:                                               ; preds = %68
  br label %82

77:                                               ; preds = %68
  %78 = load ptr, ptr %9, align 8
  %79 = load i8, ptr %10, align 1, !range !8, !noundef !9
  %80 = trunc i8 %79 to i1
  %81 = select i1 %80, i32 1, i32 0
  call void @modify_time_perform(ptr noundef %78, i32 noundef %81, ptr noundef %6, i32 noundef 0)
  br label %82

82:                                               ; preds = %77, %76
  %83 = load i32, ptr %8, align 4
  %84 = add i32 %83, 1
  store i32 %84, ptr %8, align 4
  br label %62, !llvm.loop !10

85:                                               ; preds = %62
  %86 = load ptr, ptr %4, align 8
  %87 = getelementptr inbounds nuw %struct._capture_file, ptr %86, i32 0, i32 5
  store i8 1, ptr %87, align 1
  call void @packet_list_queue_draw()
  store ptr null, ptr %3, align 8
  store i32 1, ptr %15, align 4
  br label %88

88:                                               ; preds = %85, %60, %39, %26, %21
  call void @llvm.lifetime.end.p0(i64 8, ptr %14) #8
  call void @llvm.lifetime.end.p0(i64 16, ptr %13) #8
  call void @llvm.lifetime.end.p0(i64 4, ptr %12) #8
  call void @llvm.lifetime.end.p0(i64 4, ptr %11) #8
  call void @llvm.lifetime.end.p0(i64 1, ptr %10) #8
  call void @llvm.lifetime.end.p0(i64 8, ptr %9) #8
  call void @llvm.lifetime.end.p0(i64 4, ptr %8) #8
  call void @llvm.lifetime.end.p0(i64 16, ptr %7) #8
  call void @llvm.lifetime.end.p0(i64 16, ptr %6) #8
  %89 = load ptr, ptr %3, align 8
  ret ptr %89
}