; Function Attrs: null_pointer_is_valid sspstrong uwtable
define hidden noundef ptr @time_shift_all(ptr noundef captures(address_is_null) %0, ptr noundef captures(address_is_null) %1) local_unnamed_addr #3 {
  %3 = alloca %struct.nstime_t, align 8
  %4 = alloca i8, align 1
  %5 = alloca i32, align 4
  %6 = alloca i32, align 4
  %7 = alloca x86_fp80, align 16
  call void @llvm.lifetime.start.p0(i64 16, ptr nonnull %3) #11
  call void @llvm.lifetime.start.p0(i64 1, ptr nonnull %4) #11
  call void @llvm.lifetime.start.p0(i64 4, ptr nonnull %5) #11
  call void @llvm.lifetime.start.p0(i64 4, ptr nonnull %6) #11
  call void @llvm.lifetime.start.p0(i64 16, ptr nonnull %7) #11
  %8 = icmp ne ptr %0, null
  %9 = icmp ne ptr %1, null
  %or.cond = and i1 %8, %9
  br i1 %or.cond, label %10, label %48

10:                                               ; preds = %2
  %11 = call ptr @time_string_parse(ptr noundef nonnull %1, ptr noundef null, ptr noundef null, ptr noundef null, ptr noundef nonnull %4, ptr noundef nonnull %5, ptr noundef nonnull %6, ptr noundef nonnull %7)
  %.not = icmp eq ptr %11, null
  br i1 %.not, label %12, label %48

12:                                               ; preds = %10
  %13 = load i32, ptr %5, align 4
  %14 = mul i32 %13, 3600
  %15 = load i32, ptr %6, align 4
  %16 = mul i32 %15, 60
  %17 = add i32 %16, %14
  %18 = sitofp i32 %17 to x86_fp80
  %19 = load x86_fp80, ptr %7, align 16
  %20 = fadd x86_fp80 %19, %18
  %21 = fcmp oeq x86_fp80 %20, 0xK00000000000000000000
  br i1 %21, label %48, label %22

22:                                               ; preds = %12
  call void @nstime_set_zero(ptr noundef nonnull %3)
  %23 = call x86_fp80 @llvm.floor.f80(x86_fp80 %20)
  %24 = fptosi x86_fp80 %23 to i64
  store i64 %24, ptr %3, align 8
  %25 = sitofp i64 %24 to x86_fp80
  %26 = fsub x86_fp80 %20, %25
  %27 = fmul x86_fp80 %26, 0xK401CEE6B280000000000
  %28 = fptosi x86_fp80 %27 to i32
  %29 = getelementptr inbounds nuw i8, ptr %3, i64 8
  store i32 %28, ptr %29, align 8
  %30 = getelementptr inbounds nuw i8, ptr %0, i64 256
  %31 = load ptr, ptr %30, align 8
  %32 = call ptr @frame_data_sequence_find(ptr noundef %31, i32 noundef 1)
  %.not23 = icmp eq ptr %32, null
  br i1 %.not23, label %48, label %.preheader

.preheader:                                       ; preds = %22
  %33 = getelementptr inbounds nuw i8, ptr %0, i64 72
  %34 = load i32, ptr %33, align 8
  %.not2425 = icmp eq i32 %34, 0
  br i1 %.not2425, label %._crit_edge, label %.lr.ph

.lr.ph:                                           ; preds = %.preheader, %modify_time_perform.exit
  %.01726 = phi i32 [ %45, %modify_time_perform.exit ], [ 1, %.preheader ]
  %35 = load ptr, ptr %30, align 8
  %36 = call ptr @frame_data_sequence_find(ptr noundef %35, i32 noundef %.01726)
  %37 = icmp eq ptr %36, null
  br i1 %37, label %modify_time_perform.exit, label %38

38:                                               ; preds = %.lr.ph
  %39 = load i8, ptr %4, align 1, !range !8, !noundef !9
  %40 = icmp eq i8 %39, 0
  %41 = getelementptr inbounds nuw i8, ptr %36, i64 64
  %42 = getelementptr inbounds nuw i8, ptr %36, i64 80
  br i1 %40, label %43, label %44

43:                                               ; preds = %38
  call void @nstime_sum(ptr noundef nonnull %41, ptr noundef nonnull %41, ptr noundef nonnull %3)
  call void @nstime_sum(ptr noundef nonnull %42, ptr noundef nonnull %42, ptr noundef nonnull %3)
  br label %modify_time_perform.exit

44:                                               ; preds = %38
  call void @nstime_delta(ptr noundef nonnull %41, ptr noundef nonnull %41, ptr noundef nonnull %3)
  call void @nstime_delta(ptr noundef nonnull %42, ptr noundef nonnull %42, ptr noundef nonnull %3)
  br label %modify_time_perform.exit

modify_time_perform.exit:                         ; preds = %44, %43, %.lr.ph
  %45 = add i32 %.01726, 1
  %46 = load i32, ptr %33, align 8
  %.not24 = icmp ugt i32 %45, %46
  br i1 %.not24, label %._crit_edge, label %.lr.ph, !llvm.loop !10

._crit_edge:                                      ; preds = %modify_time_perform.exit, %.preheader
  %47 = getelementptr inbounds nuw i8, ptr %0, i64 33
  store i8 1, ptr %47, align 1
  call void @packet_list_queue_draw()
  br label %48

48:                                               ; preds = %22, %12, %10, %2, %._crit_edge
  %.0 = phi ptr [ null, %._crit_edge ], [ @.str.15, %2 ], [ %11, %10 ], [ @.str.16, %12 ], [ @.str.17, %22 ]
  call void @llvm.lifetime.end.p0(i64 16, ptr nonnull %7) #11
  call void @llvm.lifetime.end.p0(i64 4, ptr nonnull %6) #11
  call void @llvm.lifetime.end.p0(i64 4, ptr nonnull %5) #11
  call void @llvm.lifetime.end.p0(i64 1, ptr nonnull %4) #11
  call void @llvm.lifetime.end.p0(i64 16, ptr nonnull %3) #11
  ret ptr %.0
}